target datalayout = "e-m:e-p270:32:32-p271:32:32-p272:64:64-i64:64-i128:128-f80:128-n8:16:32:64-S128"
target triple = "x86_64-pc-linux-gnu"

%struct.__va_list_tag = type { i32, i32, ptr, ptr }
%struct.ggml_tensor = type { i32, ptr, [4 x i64], [4 x i64], i32, [16 x i32], i32, [10 x ptr], ptr, i64, ptr, [64 x i8], ptr, [8 x i8] }

@stdout = external global ptr, align 8
@stderr = external global ptr, align 8
@.str = private unnamed_addr constant [8 x i8] c"%s:%d: \00", align 1
@.str.1 = private unnamed_addr constant [2 x i8] c"\0A\00", align 1
@.str.13 = private unnamed_addr constant [23 x i8] c"GGML_ASSERT(%s) failed\00", align 1
@.str.23 = private unnamed_addr constant [10 x i8] c"%s (view)\00", align 1
@.str.219 = private unnamed_addr constant [18 x i8] c"GGML_NO_BACKTRACE\00", align 1
@.str.220 = private unnamed_addr constant [10 x i8] c"attach %d\00", align 1
@.str.221 = private unnamed_addr constant [4 x i8] c"gdb\00", align 1
@.str.222 = private unnamed_addr constant [8 x i8] c"--batch\00", align 1
@.str.223 = private unnamed_addr constant [4 x i8] c"-ex\00", align 1
@.str.224 = private unnamed_addr constant [21 x i8] c"set style enabled on\00", align 1
@.str.225 = private unnamed_addr constant [35 x i8] c"bt -frame-info source-and-location\00", align 1
@.str.226 = private unnamed_addr constant [7 x i8] c"detach\00", align 1
@.str.227 = private unnamed_addr constant [5 x i8] c"quit\00", align 1
@.str.228 = private unnamed_addr constant [5 x i8] c"lldb\00", align 1
@.str.229 = private unnamed_addr constant [3 x i8] c"-o\00", align 1
@.str.230 = private unnamed_addr constant [3 x i8] c"bt\00", align 1
@.str.231 = private unnamed_addr constant [3 x i8] c"-p\00", align 1
@.str.463 = private unnamed_addr constant [118 x i8] c"generated/home/dtcxzyw/WorkSpace/Projects/compilers/llvm-opt-benchmark/bench/llama.cpp/llama.cpp/ggml/src/ggml-impl.h\00", align 1
@.str.464 = private unnamed_addr constant [15 x i8] c"tensor != NULL\00", align 1

; Function Attrs: nounwind uwtable
define internal void @ggml_print_backtrace_symbols() #5 {
  %1 = alloca [100 x ptr], align 16
  %2 = alloca i32, align 4
  call void @llvm.lifetime.start.p0(i64 800, ptr %1) #14
  call void @llvm.lifetime.start.p0(i64 4, ptr %2) #14
  %3 = getelementptr inbounds [100 x ptr], ptr %1, i64 0, i64 0
  %4 = call i32 @backtrace(ptr noundef %3, i32 noundef 100)
  store i32 %4, ptr %2, align 4, !tbaa !8
  %5 = getelementptr inbounds [100 x ptr], ptr %1, i64 0, i64 0
  %6 = load i32, ptr %2, align 4, !tbaa !8
  call void @backtrace_symbols_fd(ptr noundef %5, i32 noundef %6, i32 noundef 2) #14
  call void @llvm.lifetime.end.p0(i64 4, ptr %2) #14
  call void @llvm.lifetime.end.p0(i64 800, ptr %1) #14
  ret void
}

; Function Attrs: nounwind uwtable
define internal void @ggml_print_backtrace() #5 {
  %1 = alloca ptr, align 8
  %2 = alloca i32, align 4
  %3 = alloca [32 x i8], align 16
  %4 = alloca i32, align 4
  %5 = alloca i32, align 4
  call void @llvm.lifetime.start.p0(i64 8, ptr %1) #14
  %6 = call ptr @getenv(ptr noundef @.str.219) #14
  store ptr %6, ptr %1, align 8, !tbaa !3
  %7 = load ptr, ptr %1, align 8, !tbaa !3
  %8 = icmp ne ptr %7, null
  br i1 %8, label %9, label %10

9:                                                ; preds = %0
  store i32 1, ptr %2, align 4
  br label %37

10:                                               ; preds = %0
  call void @llvm.lifetime.start.p0(i64 32, ptr %3) #14
  %11 = getelementptr inbounds [32 x i8], ptr %3, i64 0, i64 0
  %12 = call i32 @getpid() #14
  %13 = call i32 (ptr, i64, ptr, ...) @snprintf(ptr noundef %11, i64 noundef 32, ptr noundef @.str.220, i32 noundef %12) #14
  call void @llvm.lifetime.start.p0(i64 4, ptr %4) #14
  %14 = call i32 @fork() #14
  store i32 %14, ptr %4, align 4, !tbaa !8
  %15 = load i32, ptr %4, align 4, !tbaa !8
  %16 = icmp eq i32 %15, 0
  br i1 %16, label %17, label %22

17:                                               ; preds = %10
  %18 = getelementptr inbounds [32 x i8], ptr %3, i64 0, i64 0
  %19 = call i32 (ptr, ptr, ...) @execlp(ptr noundef @.str.221, ptr noundef @.str.221, ptr noundef @.str.222, ptr noundef @.str.223, ptr noundef @.str.224, ptr noundef @.str.223, ptr noundef %18, ptr noundef @.str.223, ptr noundef @.str.225, ptr noundef @.str.223, ptr noundef @.str.226, ptr noundef @.str.223, ptr noundef @.str.227, ptr noundef null) #14
  %20 = getelementptr inbounds [32 x i8], ptr %3, i64 0, i64 0
  %21 = call i32 (ptr, ptr, ...) @execlp(ptr noundef @.str.228, ptr noundef @.str.228, ptr noundef @.str.222, ptr noundef @.str.229, ptr noundef @.str.230, ptr noundef @.str.229, ptr noundef @.str.227, ptr noundef @.str.231, ptr noundef %20, ptr noundef null) #14
  call void @exit(i32 noundef 1) #15
  unreachable

22:                                               ; preds = %10
  call void @llvm.lifetime.start.p0(i64 4, ptr %5) #14
  %23 = load i32, ptr %4, align 4, !tbaa !8
  %24 = call i32 @waitpid(i32 noundef %23, ptr noundef %5, i32 noundef 0)
  %25 = load i32, ptr %5, align 4, !tbaa !8
  %26 = and i32 %25, 127
  %27 = icmp eq i32 %26, 0
  br i1 %27, label %28, label %35

28:                                               ; preds = %22
  %29 = load i32, ptr %5, align 4, !tbaa !8
  %30 = and i32 %29, 65280
  %31 = ashr i32 %30, 8
  %32 = icmp eq i32 %31, 1
  br i1 %32, label %33, label %34

33:                                               ; preds = %28
  call void @ggml_print_backtrace_symbols()
  br label %34

34:                                               ; preds = %33, %28
  br label %35

35:                                               ; preds = %34, %22
  call void @llvm.lifetime.end.p0(i64 4, ptr %5) #14
  br label %36

36:                                               ; preds = %35
  call void @llvm.lifetime.end.p0(i64 4, ptr %4) #14
  call void @llvm.lifetime.end.p0(i64 32, ptr %3) #14
  store i32 0, ptr %2, align 4
  br label %37

37:                                               ; preds = %36, %9
  call void @llvm.lifetime.end.p0(i64 8, ptr %1) #14
  %38 = load i32, ptr %2, align 4
  switch i32 %38, label %40 [
    i32 0, label %39
    i32 1, label %39
  ]

39:                                               ; preds = %37, %37
  ret void

40:                                               ; preds = %37
  unreachable
}

; Function Attrs: noreturn nounwind uwtable
define void @ggml_abort(ptr noundef %0, i32 noundef %1, ptr noundef %2, ...) #0 {
  %4 = alloca ptr, align 8
  %5 = alloca i32, align 4
  %6 = alloca ptr, align 8
  %7 = alloca [1 x %struct.__va_list_tag], align 16
  store ptr %0, ptr %4, align 8, !tbaa !3
  store i32 %1, ptr %5, align 4, !tbaa !8
  store ptr %2, ptr %6, align 8, !tbaa !3
  %8 = load ptr, ptr @stdout, align 8, !tbaa !10
  %9 = call i32 @fflush(ptr noundef %8)
  %10 = load ptr, ptr @stderr, align 8, !tbaa !10
  %11 = load ptr, ptr %4, align 8, !tbaa !3
  %12 = load i32, ptr %5, align 4, !tbaa !8
  %13 = call i32 (ptr, ptr, ...) @fprintf(ptr noundef %10, ptr noundef @.str, ptr noundef %11, i32 noundef %12) #14
  call void @llvm.lifetime.start.p0(i64 24, ptr %7) #14
  %14 = getelementptr inbounds [1 x %struct.__va_list_tag], ptr %7, i64 0, i64 0
  call void @llvm.va_start.p0(ptr %14)
  %15 = load ptr, ptr @stderr, align 8, !tbaa !10
  %16 = load ptr, ptr %6, align 8, !tbaa !3
  %17 = getelementptr inbounds [1 x %struct.__va_list_tag], ptr %7, i64 0, i64 0
  %18 = call i32 @vfprintf(ptr noundef %15, ptr noundef %16, ptr noundef %17) #14
  %19 = getelementptr inbounds [1 x %struct.__va_list_tag], ptr %7, i64 0, i64 0
  call void @llvm.va_end.p0(ptr %19)
  %20 = load ptr, ptr @stderr, align 8, !tbaa !10
  %21 = call i32 (ptr, ptr, ...) @fprintf(ptr noundef %20, ptr noundef @.str.1) #14
  call void @ggml_print_backtrace()
  call void @abort() #15
  unreachable
}

; Function Attrs: nounwind uwtable
define ptr @ggml_new_tensor(ptr noundef %0, i32 noundef %1, i32 noundef %2, ptr noundef %3) #5 {
  %5 = alloca ptr, align 8
  %6 = alloca i32, align 4
  %7 = alloca i32, align 4
  %8 = alloca ptr, align 8
  store ptr %0, ptr %5, align 8, !tbaa !48
  store i32 %1, ptr %6, align 4, !tbaa !8
  store i32 %2, ptr %7, align 4, !tbaa !8
  store ptr %3, ptr %8, align 8, !tbaa !88
  %9 = load ptr, ptr %5, align 8, !tbaa !48
  %10 = load i32, ptr %6, align 4, !tbaa !8
  %11 = load i32, ptr %7, align 4, !tbaa !8
  %12 = load ptr, ptr %8, align 8, !tbaa !88
  %13 = call ptr @ggml_new_tensor_impl(ptr noundef %9, i32 noundef %10, i32 noundef %11, ptr noundef %12, ptr noundef null, i64 noundef 0)
  ret ptr %13
}

; Function Attrs: nounwind uwtable
define internal void @ggml_set_op_params(ptr noundef %0, ptr noundef %1, i64 noundef %2) #5 {
  %4 = alloca ptr, align 8
  %5 = alloca ptr, align 8
  %6 = alloca i64, align 8
  store ptr %0, ptr %4, align 8, !tbaa !54
  store ptr %1, ptr %5, align 8, !tbaa !18
  store i64 %2, ptr %6, align 8, !tbaa !19
  %7 = load ptr, ptr %4, align 8, !tbaa !54
  %8 = icmp ne ptr %7, null
  br i1 %8, label %10, label %9

9:                                                ; preds = %3
  call void (ptr, i32, ptr, ...) @ggml_abort(ptr noundef @.str.463, i32 noundef 112, ptr noundef @.str.13, ptr noundef @.str.464) #18
  unreachable

10:                                               ; preds = %3
  %11 = load ptr, ptr %4, align 8, !tbaa !54
  %12 = getelementptr inbounds nuw %struct.ggml_tensor, ptr %11, i32 0, i32 5
  %13 = getelementptr inbounds [16 x i32], ptr %12, i64 0, i64 0
  %14 = load ptr, ptr %5, align 8, !tbaa !18
  %15 = load i64, ptr %6, align 8, !tbaa !19
  call void @llvm.memcpy.p0.p0.i64(ptr align 4 %13, ptr align 1 %14, i64 %15, i1 false)
  ret void
}

; Function Attrs: nounwind uwtable
define ptr @ggml_dup_tensor(ptr noundef %0, ptr noundef %1) #5 {
  %3 = alloca ptr, align 8
  %4 = alloca ptr, align 8
  store ptr %0, ptr %3, align 8, !tbaa !48
  store ptr %1, ptr %4, align 8, !tbaa !54
  %5 = load ptr, ptr %3, align 8, !tbaa !48
  %6 = load ptr, ptr %4, align 8, !tbaa !54
  %7 = getelementptr inbounds nuw %struct.ggml_tensor, ptr %6, i32 0, i32 0
  %8 = load i32, ptr %7, align 8, !tbaa !56
  %9 = load ptr, ptr %4, align 8, !tbaa !54
  %10 = getelementptr inbounds nuw %struct.ggml_tensor, ptr %9, i32 0, i32 2
  %11 = getelementptr inbounds [4 x i64], ptr %10, i64 0, i64 0
  %12 = call ptr @ggml_new_tensor(ptr noundef %5, i32 noundef %8, i32 noundef 4, ptr noundef %11)
  ret ptr %12
}

; Function Attrs: nounwind uwtable
define ptr @ggml_view_tensor(ptr noundef %0, ptr noundef %1) #5 {
  %3 = alloca ptr, align 8
  %4 = alloca ptr, align 8
  %5 = alloca ptr, align 8
  %6 = alloca i32, align 4
  store ptr %0, ptr %3, align 8, !tbaa !48
  store ptr %1, ptr %4, align 8, !tbaa !54
  call void @llvm.lifetime.start.p0(i64 8, ptr %5) #14
  %7 = load ptr, ptr %3, align 8, !tbaa !48
  %8 = load ptr, ptr %4, align 8, !tbaa !54
  %9 = getelementptr inbounds nuw %struct.ggml_tensor, ptr %8, i32 0, i32 0
  %10 = load i32, ptr %9, align 8, !tbaa !56
  %11 = load ptr, ptr %4, align 8, !tbaa !54
  %12 = getelementptr inbounds nuw %struct.ggml_tensor, ptr %11, i32 0, i32 2
  %13 = getelementptr inbounds [4 x i64], ptr %12, i64 0, i64 0
  %14 = load ptr, ptr %4, align 8, !tbaa !54
  %15 = call ptr @ggml_new_tensor_impl(ptr noundef %7, i32 noundef %10, i32 noundef 4, ptr noundef %13, ptr noundef %14, i64 noundef 0)
  store ptr %15, ptr %5, align 8, !tbaa !54
  %16 = load ptr, ptr %5, align 8, !tbaa !54
  %17 = load ptr, ptr %4, align 8, !tbaa !54
  %18 = getelementptr inbounds nuw %struct.ggml_tensor, ptr %17, i32 0, i32 11
  %19 = getelementptr inbounds [64 x i8], ptr %18, i64 0, i64 0
  %20 = call ptr (ptr, ptr, ...) @ggml_format_name(ptr noundef %16, ptr noundef @.str.23, ptr noundef %19)
  call void @llvm.lifetime.start.p0(i64 4, ptr %6) #14
  store i32 0, ptr %6, align 4, !tbaa !8
  br label %21

21:                                               ; preds = %37, %2
  %22 = load i32, ptr %6, align 4, !tbaa !8
  %23 = icmp slt i32 %22, 4
  br i1 %23, label %25, label %24

24:                                               ; preds = %21
  call void @llvm.lifetime.end.p0(i64 4, ptr %6) #14
  br label %40

25:                                               ; preds = %21
  %26 = load ptr, ptr %4, align 8, !tbaa !54
  %27 = getelementptr inbounds nuw %struct.ggml_tensor, ptr %26, i32 0, i32 3
  %28 = load i32, ptr %6, align 4, !tbaa !8
  %29 = sext i32 %28 to i64
  %30 = getelementptr inbounds [4 x i64], ptr %27, i64 0, i64 %29
  %31 = load i64, ptr %30, align 8, !tbaa !19
  %32 = load ptr, ptr %5, align 8, !tbaa !54
  %33 = getelementptr inbounds nuw %struct.ggml_tensor, ptr %32, i32 0, i32 3
  %34 = load i32, ptr %6, align 4, !tbaa !8
  %35 = sext i32 %34 to i64
  %36 = getelementptr inbounds [4 x i64], ptr %33, i64 0, i64 %35
  store i64 %31, ptr %36, align 8, !tbaa !19
  br label %37

37:                                               ; preds = %25
  %38 = load i32, ptr %6, align 4, !tbaa !8
  %39 = add nsw i32 %38, 1
  store i32 %39, ptr %6, align 4, !tbaa !8
  br label %21, !llvm.loop !101

40:                                               ; preds = %24
  %41 = load ptr, ptr %5, align 8, !tbaa !54
  call void @llvm.lifetime.end.p0(i64 8, ptr %5) #14
  ret ptr %41
}

; Function Attrs: nounwind uwtable
define internal ptr @ggml_norm_impl(ptr noundef %0, ptr noundef %1, float noundef %2, i1 noundef zeroext %3) #5 {
  %5 = alloca ptr, align 8
  %6 = alloca ptr, align 8
  %7 = alloca float, align 4
  %8 = alloca i8, align 1
  %9 = alloca ptr, align 8
  store ptr %0, ptr %5, align 8, !tbaa !48
  store ptr %1, ptr %6, align 8, !tbaa !54
  store float %2, ptr %7, align 4, !tbaa !23
  %10 = zext i1 %3 to i8
  store i8 %10, ptr %8, align 1, !tbaa !72
  call void @llvm.lifetime.start.p0(i64 8, ptr %9) #14
  %11 = load i8, ptr %8, align 1, !tbaa !72, !range !66, !noundef !67
  %12 = trunc i8 %11 to i1
  br i1 %12, label %13, label %17

13:                                               ; preds = %4
  %14 = load ptr, ptr %5, align 8, !tbaa !48
  %15 = load ptr, ptr %6, align 8, !tbaa !54
  %16 = call ptr @ggml_view_tensor(ptr noundef %14, ptr noundef %15)
  br label %21

17:                                               ; preds = %4
  %18 = load ptr, ptr %5, align 8, !tbaa !48
  %19 = load ptr, ptr %6, align 8, !tbaa !54
  %20 = call ptr @ggml_dup_tensor(ptr noundef %18, ptr noundef %19)
  br label %21

21:                                               ; preds = %17, %13
  %22 = phi ptr [ %16, %13 ], [ %20, %17 ]
  store ptr %22, ptr %9, align 8, !tbaa !54
  %23 = load ptr, ptr %9, align 8, !tbaa !54
  call void @ggml_set_op_params(ptr noundef %23, ptr noundef %7, i64 noundef 4)
  %24 = load ptr, ptr %9, align 8, !tbaa !54
  %25 = getelementptr inbounds nuw %struct.ggml_tensor, ptr %24, i32 0, i32 4
  store i32 22, ptr %25, align 8, !tbaa !68
  %26 = load ptr, ptr %6, align 8, !tbaa !54
  %27 = load ptr, ptr %9, align 8, !tbaa !54
  %28 = getelementptr inbounds nuw %struct.ggml_tensor, ptr %27, i32 0, i32 7
  %29 = getelementptr inbounds [10 x ptr], ptr %28, i64 0, i64 0
  store ptr %26, ptr %29, align 8, !tbaa !54
  %30 = load ptr, ptr %9, align 8, !tbaa !54
  call void @llvm.lifetime.end.p0(i64 8, ptr %9) #14
  ret ptr %30
}

; Function Attrs: nounwind uwtable
define ptr @ggml_norm_inplace(ptr noundef %0, ptr noundef %1, float noundef %2) #5 {
  %4 = alloca ptr, align 8
  %5 = alloca ptr, align 8
  %6 = alloca float, align 4
  store ptr %0, ptr %4, align 8, !tbaa !48
  store ptr %1, ptr %5, align 8, !tbaa !54
  store float %2, ptr %6, align 4, !tbaa !23
  %7 = load ptr, ptr %4, align 8, !tbaa !48
  %8 = load ptr, ptr %5, align 8, !tbaa !54
  %9 = load float, ptr %6, align 4, !tbaa !23
  %10 = call ptr @ggml_norm_impl(ptr noundef %7, ptr noundef %8, float noundef %9, i1 noundef zeroext true)
  ret ptr %10
}