; Function Attrs: nounwind uwtable
define noundef ptr @ggml_norm_inplace(ptr noundef captures(none) %0, ptr noundef %1, float noundef %2) local_unnamed_addr #4 {
  %4 = load i32, ptr %1, align 8, !tbaa !40
  %5 = getelementptr inbounds nuw i8, ptr %1, i64 16
  %6 = tail call fastcc ptr @ggml_new_tensor_impl(ptr noundef %0, i32 noundef %4, i32 noundef 4, ptr noundef nonnull %5, ptr noundef nonnull %1, i64 noundef 0)
  %7 = getelementptr inbounds nuw i8, ptr %1, i64 256
  %8 = tail call ptr (ptr, ptr, ...) @ggml_format_name(ptr noundef %6, ptr noundef nonnull @.str.23, ptr noundef nonnull %7)
  %9 = getelementptr inbounds nuw i8, ptr %1, i64 48
  %10 = getelementptr inbounds nuw i8, ptr %6, i64 48
  br label %11

11:                                               ; preds = %11, %3
  %indvars.iv.i.i = phi i64 [ 0, %3 ], [ %indvars.iv.next.i.i, %11 ]
  %12 = getelementptr inbounds nuw [4 x i64], ptr %9, i64 0, i64 %indvars.iv.i.i
  %13 = load i64, ptr %12, align 8, !tbaa !39
  %14 = getelementptr inbounds nuw [4 x i64], ptr %10, i64 0, i64 %indvars.iv.i.i
  store i64 %13, ptr %14, align 8, !tbaa !39
  %indvars.iv.next.i.i = add nuw nsw i64 %indvars.iv.i.i, 1
  %exitcond.not.i.i = icmp eq i64 %indvars.iv.next.i.i, 4
  br i1 %exitcond.not.i.i, label %ggml_norm_impl.exit, label %11, !llvm.loop !86

ggml_norm_impl.exit:                              ; preds = %11
  %15 = getelementptr inbounds nuw i8, ptr %6, i64 84
  store float %2, ptr %15, align 4
  %16 = getelementptr inbounds nuw i8, ptr %6, i64 80
  store i32 22, ptr %16, align 8, !tbaa !55
  %17 = getelementptr inbounds nuw i8, ptr %6, i64 152
  store ptr %1, ptr %17, align 8, !tbaa !81
  ret ptr %6
}